; Function Attrs: nounwind uwtable
define dso_local ptr @php_pcre2_compile_context_create(ptr noundef readonly captures(address_is_null) %0) local_unnamed_addr #0 {
  %2 = icmp eq ptr %0, null
  br i1 %2, label %3, label %.thread.i

3:                                                ; preds = %1
  %4 = tail call noalias dereferenceable_or_null(88) ptr @malloc(i64 noundef 88) #11
  %5 = icmp eq ptr %4, null
  br i1 %5, label %_pcre2_memctl_malloc_8.exit.thread, label %_pcre2_memctl_malloc_8.exit.thread11

.thread.i:                                        ; preds = %1
  %6 = load ptr, ptr %0, align 8, !tbaa !4
  %7 = getelementptr inbounds nuw i8, ptr %0, i64 16
  %8 = load ptr, ptr %7, align 8, !tbaa !9
  %9 = tail call ptr %6(i64 noundef 88, ptr noundef %8) #12
  %10 = icmp eq ptr %9, null
  br i1 %10, label %_pcre2_memctl_malloc_8.exit.thread, label %11

_pcre2_memctl_malloc_8.exit.thread11:             ; preds = %3
  tail call void @llvm.memcpy.p0.p0.i64(ptr noundef nonnull align 8 dereferenceable(88) %4, ptr noundef nonnull align 8 dereferenceable(88) @_pcre2_default_compile_context_8, i64 88, i1 false), !tbaa.struct !17
  br label %_pcre2_memctl_malloc_8.exit.thread

11:                                               ; preds = %.thread.i
  tail call void @llvm.memcpy.p0.p0.i64(ptr noundef nonnull align 8 dereferenceable(24) %9, ptr noundef nonnull readonly align 8 dereferenceable(24) %0, i64 24, i1 false), !tbaa.struct !11
  tail call void @llvm.memcpy.p0.p0.i64(ptr noundef nonnull align 8 dereferenceable(88) %9, ptr noundef nonnull align 8 dereferenceable(88) @_pcre2_default_compile_context_8, i64 88, i1 false), !tbaa.struct !17
  tail call void @llvm.memcpy.p0.p0.i64(ptr noundef nonnull align 8 dereferenceable(24) %9, ptr noundef nonnull align 8 dereferenceable(24) %0, i64 24, i1 false), !tbaa.struct !11
  br label %_pcre2_memctl_malloc_8.exit.thread

_pcre2_memctl_malloc_8.exit.thread:               ; preds = %.thread.i, %3, %_pcre2_memctl_malloc_8.exit.thread11, %11
  %.0 = phi ptr [ %9, %11 ], [ %4, %_pcre2_memctl_malloc_8.exit.thread11 ], [ null, %3 ], [ null, %.thread.i ]
  ret ptr %.0
}